target datalayout = "e-m:e-p270:32:32-p271:32:32-p272:64:64-i64:64-i128:128-f80:128-n8:16:32:64-S128"
target triple = "x86_64-pc-linux-gnu"

; Function Attrs: nounwind uwtable
define void @ff_celp_lp_zero_synthesis_filterf(ptr noundef %0, ptr noundef %1, ptr noundef %2, i32 noundef %3, i32 noundef %4) #0 {
  %6 = alloca ptr, align 8
  %7 = alloca ptr, align 8
  %8 = alloca ptr, align 8
  %9 = alloca i32, align 4
  %10 = alloca i32, align 4
  %11 = alloca i32, align 4
  %12 = alloca i32, align 4
  store ptr %0, ptr %6, align 8, !tbaa !17
  store ptr %1, ptr %7, align 8, !tbaa !17
  store ptr %2, ptr %8, align 8, !tbaa !17
  store i32 %3, ptr %9, align 4, !tbaa !9
  store i32 %4, ptr %10, align 4, !tbaa !9
  call void @llvm.lifetime.start.p0(i64 4, ptr %11) #5
  call void @llvm.lifetime.start.p0(i64 4, ptr %12) #5
  store i32 0, ptr %12, align 4, !tbaa !9
  br label %13

13:                                               ; preds = %55, %5
  %14 = load i32, ptr %12, align 4, !tbaa !9
  %15 = load i32, ptr %9, align 4, !tbaa !9
  %16 = icmp slt i32 %14, %15
  br i1 %16, label %17, label %58

17:                                               ; preds = %13
  %18 = load ptr, ptr %8, align 8, !tbaa !17
  %19 = load i32, ptr %12, align 4, !tbaa !9
  %20 = sext i32 %19 to i64
  %21 = getelementptr inbounds float, ptr %18, i64 %20
  %22 = load float, ptr %21, align 4, !tbaa !19
  %23 = load ptr, ptr %6, align 8, !tbaa !17
  %24 = load i32, ptr %12, align 4, !tbaa !9
  %25 = sext i32 %24 to i64
  %26 = getelementptr inbounds float, ptr %23, i64 %25
  store float %22, ptr %26, align 4, !tbaa !19
  store i32 1, ptr %11, align 4, !tbaa !9
  br label %27

27:                                               ; preds = %51, %17
  %28 = load i32, ptr %11, align 4, !tbaa !9
  %29 = load i32, ptr %10, align 4, !tbaa !9
  %30 = icmp sle i32 %28, %29
  br i1 %30, label %31, label %54

31:                                               ; preds = %27
  %32 = load ptr, ptr %7, align 8, !tbaa !17
  %33 = load i32, ptr %11, align 4, !tbaa !9
  %34 = sub nsw i32 %33, 1
  %35 = sext i32 %34 to i64
  %36 = getelementptr inbounds float, ptr %32, i64 %35
  %37 = load float, ptr %36, align 4, !tbaa !19
  %38 = load ptr, ptr %8, align 8, !tbaa !17
  %39 = load i32, ptr %12, align 4, !tbaa !9
  %40 = load i32, ptr %11, align 4, !tbaa !9
  %41 = sub nsw i32 %39, %40
  %42 = sext i32 %41 to i64
  %43 = getelementptr inbounds float, ptr %38, i64 %42
  %44 = load float, ptr %43, align 4, !tbaa !19
  %45 = load ptr, ptr %6, align 8, !tbaa !17
  %46 = load i32, ptr %12, align 4, !tbaa !9
  %47 = sext i32 %46 to i64
  %48 = getelementptr inbounds float, ptr %45, i64 %47
  %49 = load float, ptr %48, align 4, !tbaa !19
  %50 = call nsz float @llvm.fmuladd.f32(float %37, float %44, float %49)
  store float %50, ptr %48, align 4, !tbaa !19
  br label %51

51:                                               ; preds = %31
  %52 = load i32, ptr %11, align 4, !tbaa !9
  %53 = add nsw i32 %52, 1
  store i32 %53, ptr %11, align 4, !tbaa !9
  br label %27, !llvm.loop !29

54:                                               ; preds = %27
  br label %55

55:                                               ; preds = %54
  %56 = load i32, ptr %12, align 4, !tbaa !9
  %57 = add nsw i32 %56, 1
  store i32 %57, ptr %12, align 4, !tbaa !9
  br label %13, !llvm.loop !30

58:                                               ; preds = %13
  call void @llvm.lifetime.end.p0(i64 4, ptr %12) #5
  call void @llvm.lifetime.end.p0(i64 4, ptr %11) #5
  ret void
}