; Function Attrs: nofree norecurse nosync nounwind memory(argmem: readwrite) uwtable
define void @ff_celp_lp_zero_synthesis_filterf(ptr noundef writeonly captures(none) %0, ptr noundef readonly captures(none) %1, ptr noundef readonly captures(none) %2, i32 noundef %3, i32 noundef %4) #0 {
  %6 = icmp sgt i32 %3, 0
  br i1 %6, label %.lr.ph21, label %._crit_edge22

.lr.ph21:                                         ; preds = %5
  %invariant.gep = getelementptr i8, ptr %1, i64 -4
  %.not17 = icmp slt i32 %4, 1
  br i1 %.not17, label %.lr.ph21.split.us.preheader, label %.lr.ph.preheader

.lr.ph.preheader:                                 ; preds = %.lr.ph21
  %7 = add nuw i32 %4, 1
  %wide.trip.count28 = zext nneg i32 %3 to i64
  %wide.trip.count = zext i32 %7 to i64
  br label %.lr.ph

.lr.ph21.split.us.preheader:                      ; preds = %.lr.ph21
  %wide.trip.count33 = zext nneg i32 %3 to i64
  br label %.lr.ph21.split.us

.lr.ph21.split.us:                                ; preds = %.lr.ph21.split.us.preheader, %.lr.ph21.split.us
  %indvars.iv30 = phi i64 [ 0, %.lr.ph21.split.us.preheader ], [ %indvars.iv.next31, %.lr.ph21.split.us ]
  %8 = getelementptr inbounds nuw float, ptr %2, i64 %indvars.iv30
  %9 = load float, ptr %8, align 4, !tbaa !12
  %10 = getelementptr inbounds nuw float, ptr %0, i64 %indvars.iv30
  store float %9, ptr %10, align 4, !tbaa !12
  %indvars.iv.next31 = add nuw nsw i64 %indvars.iv30, 1
  %exitcond34.not = icmp eq i64 %indvars.iv.next31, %wide.trip.count33
  br i1 %exitcond34.not, label %._crit_edge22, label %.lr.ph21.split.us, !llvm.loop !22

.lr.ph:                                           ; preds = %.lr.ph.preheader, %._crit_edge
  %indvars.iv25 = phi i64 [ 0, %.lr.ph.preheader ], [ %indvars.iv.next26, %._crit_edge ]
  %11 = getelementptr inbounds nuw float, ptr %2, i64 %indvars.iv25
  %12 = load float, ptr %11, align 4, !tbaa !12
  %13 = getelementptr inbounds nuw float, ptr %0, i64 %indvars.iv25
  store float %12, ptr %13, align 4, !tbaa !12
  br label %14

14:                                               ; preds = %.lr.ph, %14
  %indvars.iv = phi i64 [ 1, %.lr.ph ], [ %indvars.iv.next, %14 ]
  %15 = phi float [ %12, %.lr.ph ], [ %20, %14 ]
  %gep = getelementptr float, ptr %invariant.gep, i64 %indvars.iv
  %16 = load float, ptr %gep, align 4, !tbaa !12
  %17 = sub nsw i64 %indvars.iv25, %indvars.iv
  %18 = getelementptr inbounds float, ptr %2, i64 %17
  %19 = load float, ptr %18, align 4, !tbaa !12
  %20 = tail call nsz float @llvm.fmuladd.f32(float %16, float %19, float %15)
  store float %20, ptr %13, align 4, !tbaa !12
  %indvars.iv.next = add nuw nsw i64 %indvars.iv, 1
  %exitcond.not = icmp eq i64 %indvars.iv.next, %wide.trip.count
  br i1 %exitcond.not, label %._crit_edge, label %14, !llvm.loop !23

._crit_edge:                                      ; preds = %14
  %indvars.iv.next26 = add nuw nsw i64 %indvars.iv25, 1
  %exitcond29.not = icmp eq i64 %indvars.iv.next26, %wide.trip.count28
  br i1 %exitcond29.not, label %._crit_edge22, label %.lr.ph, !llvm.loop !22

._crit_edge22:                                    ; preds = %._crit_edge, %.lr.ph21.split.us, %5
  ret void
}